; Function Attrs: nofree nounwind uwtable
define noalias noundef ptr @Gia_ManStartFanoutMap(ptr noundef readonly captures(none) %0, ptr noundef readonly captures(none) %1) local_unnamed_addr #7 {
  %3 = getelementptr i8, ptr %0, i64 24
  %.val = load i32, ptr %3, align 8, !tbaa !3
  %4 = getelementptr i8, ptr %0, i64 52
  %.val22 = load i32, ptr %4, align 4, !tbaa !35
  %5 = add nsw i32 %.val22, %.val
  %6 = getelementptr inbounds nuw i8, ptr %0, i64 64
  %7 = load ptr, ptr %6, align 8, !tbaa !36
  %8 = getelementptr i8, ptr %7, i64 4
  %.val.i = load i32, ptr %8, align 4, !tbaa !37
  %9 = getelementptr inbounds nuw i8, ptr %0, i64 72
  %10 = load ptr, ptr %9, align 8, !tbaa !38
  %11 = getelementptr i8, ptr %10, i64 4
  %.val3.i = load i32, ptr %11, align 4, !tbaa !37
  %12 = add i32 %.val3.i, %.val.i
  %13 = xor i32 %12, -1
  %14 = add i32 %.val, %13
  %15 = shl nsw i32 %14, 1
  %16 = getelementptr i8, ptr %0, i64 56
  %.val24 = load i32, ptr %16, align 8, !tbaa !39
  %17 = add i32 %5, %.val3.i
  %18 = sub i32 %17, %.val24
  %19 = add i32 %18, %15
  %20 = tail call noalias dereferenceable_or_null(16) ptr @malloc(i64 noundef 16) #13
  %21 = add i32 %19, -1
  %or.cond.i.i = icmp ult i32 %21, 15
  %spec.store.select.i.i = select i1 %or.cond.i.i, i32 16, i32 %19
  %22 = getelementptr inbounds nuw i8, ptr %20, i64 4
  store i32 %spec.store.select.i.i, ptr %20, align 8, !tbaa !40
  %.not.i.i = icmp eq i32 %spec.store.select.i.i, 0
  br i1 %.not.i.i, label %Vec_IntAlloc.exit.thread.i, label %Vec_IntAlloc.exit.i

Vec_IntAlloc.exit.thread.i:                       ; preds = %2
  %23 = getelementptr inbounds nuw i8, ptr %20, i64 8
  store ptr null, ptr %23, align 8, !tbaa !41
  store i32 %19, ptr %22, align 4, !tbaa !37
  br label %Vec_IntStart.exit

Vec_IntAlloc.exit.i:                              ; preds = %2
  %24 = sext i32 %spec.store.select.i.i to i64
  %25 = shl nsw i64 %24, 2
  %26 = tail call noalias ptr @malloc(i64 noundef %25) #13
  %27 = getelementptr inbounds nuw i8, ptr %20, i64 8
  store ptr %26, ptr %27, align 8, !tbaa !41
  store i32 %19, ptr %22, align 4, !tbaa !37
  %.not.i = icmp eq ptr %26, null
  br i1 %.not.i, label %Vec_IntStart.exit, label %28

28:                                               ; preds = %Vec_IntAlloc.exit.i
  %29 = sext i32 %19 to i64
  %30 = shl nsw i64 %29, 2
  tail call void @llvm.memset.p0.i64(ptr nonnull align 4 %26, i8 0, i64 %30, i1 false)
  br label %Vec_IntStart.exit

Vec_IntStart.exit:                                ; preds = %Vec_IntAlloc.exit.thread.i, %Vec_IntAlloc.exit.i, %28
  %.val25 = phi ptr [ null, %Vec_IntAlloc.exit.thread.i ], [ null, %Vec_IntAlloc.exit.i ], [ %26, %28 ]
  %31 = icmp sgt i32 %.val, 0
  br i1 %31, label %.lr.ph, label %.critedge

.lr.ph:                                           ; preds = %Vec_IntStart.exit
  %32 = getelementptr i8, ptr %0, i64 32
  %.val20 = load ptr, ptr %32, align 8, !tbaa !30
  %.not = icmp eq ptr %.val20, null
  br i1 %.not, label %.critedge, label %.lr.ph.split

.lr.ph.split:                                     ; preds = %.lr.ph
  %33 = getelementptr i8, ptr %1, i64 8
  %.val26 = load ptr, ptr %33, align 8, !tbaa !41
  %34 = zext nneg i32 %.val to i64
  br label %35

35:                                               ; preds = %.lr.ph.split, %35
  %indvars.iv = phi i64 [ 0, %.lr.ph.split ], [ %indvars.iv.next, %35 ]
  %.028 = phi i32 [ %.val, %.lr.ph.split ], [ %39, %35 ]
  %36 = getelementptr inbounds nuw i32, ptr %.val25, i64 %indvars.iv
  store i32 %.028, ptr %36, align 4, !tbaa !34
  %37 = getelementptr inbounds nuw i32, ptr %.val26, i64 %indvars.iv
  %38 = load i32, ptr %37, align 4, !tbaa !34
  %39 = add nsw i32 %38, %.028
  %indvars.iv.next = add nuw nsw i64 %indvars.iv, 1
  %40 = icmp samesign ult i64 %indvars.iv.next, %34
  br i1 %40, label %35, label %.critedge, !llvm.loop !42

.critedge:                                        ; preds = %35, %.lr.ph, %Vec_IntStart.exit
  ret ptr %20
}